target datalayout = "e-m:e-p270:32:32-p271:32:32-p272:64:64-i64:64-i128:128-f80:128-n8:16:32:64-S128"
target triple = "x86_64-pc-linux-gnu"

%struct.GCtrace = type { %struct.GCRef, i8, i8, i16, i32, i32, %struct.GCRef, ptr, i32, i32, ptr, ptr, %struct.GCRef, %struct.MRef, i32, i32, ptr, i32, i16, i16, i16, i16, i16, i16, i16, i8, i8, i8, i8 }
%struct.GCRef = type { i64 }
%struct.MRef = type { i64 }
%struct.jit_State = type { %struct.GCtrace, ptr, ptr, ptr, ptr, ptr, ptr, i32, i32, i32, i8, i8, %struct.IRType1, i8, %struct.FoldState, ptr, i32, i32, i32, i32, i32, i32, i32, [1 x i32], [5 x %union.TValue], [3 x %union.TValue], ptr, i32, i32, i32, i32, ptr, ptr, i32, i32, i8, ptr, i32, i32, i16, [101 x i16], [258 x i32], [15 x i32], [16 x ptr], [64 x %struct.HotPenalty], i32, [16 x %struct.BPropEntry], i32, %struct.ScEvEntry, ptr, i32, i32, i32, ptr, i32, i32, ptr, ptr, ptr, i64, i64, %union.TValue, ptr, i32, i32 }
%struct.IRType1 = type { i8 }
%struct.FoldState = type { %union.IRIns, [2 x %union.IRIns], [2 x %union.IRIns] }
%union.IRIns = type { %struct.GCRef }
%struct.HotPenalty = type { %struct.MRef, i16, i16 }
%struct.BPropEntry = type { i16, i16, i32 }
%struct.ScEvEntry = type { %struct.MRef, i16, i16, i16, i16, %struct.IRType1, i8 }
%union.TValue = type { i64 }
%struct.ASMState = type { [32 x i32], ptr, ptr, ptr, ptr, %struct.x86ModRM, i32, i32, i32, i32, i32, i32, i32, i32, i32, i32, i32, i32, i32, i32, i32, i32, i64, i64, i32, i32, i32, i32, i32, ptr, ptr, ptr, ptr, ptr, ptr, ptr, ptr, ptr, [32 x i16], [250 x i16] }
%struct.x86ModRM = type { i32, i8, i8, i8 }

; Function Attrs: nounwind uwtable
define internal void @emit_jcc(ptr noundef %0, i32 noundef %1, ptr noundef %2) #0 {
  %4 = alloca ptr, align 8
  %5 = alloca i32, align 4
  %6 = alloca ptr, align 8
  %7 = alloca ptr, align 8
  store ptr %0, ptr %4, align 8, !tbaa !33
  store i32 %1, ptr %5, align 4, !tbaa !11
  store ptr %2, ptr %6, align 8, !tbaa !13
  call void @llvm.lifetime.start.p0(i64 8, ptr %7) #11
  %8 = load ptr, ptr %4, align 8, !tbaa !33
  %9 = getelementptr inbounds nuw %struct.ASMState, ptr %8, i32 0, i32 1
  %10 = load ptr, ptr %9, align 8, !tbaa !67
  store ptr %10, ptr %7, align 8, !tbaa !13
  %11 = load ptr, ptr %4, align 8, !tbaa !33
  %12 = getelementptr inbounds nuw %struct.ASMState, ptr %11, i32 0, i32 4
  %13 = load ptr, ptr %12, align 8, !tbaa !51
  %14 = load ptr, ptr %7, align 8, !tbaa !13
  %15 = load ptr, ptr %6, align 8, !tbaa !13
  %16 = call i32 @jmprel(ptr noundef %13, ptr noundef %14, ptr noundef %15)
  %17 = load ptr, ptr %7, align 8, !tbaa !13
  %18 = getelementptr inbounds i8, ptr %17, i64 -4
  store i32 %16, ptr %18, align 4, !tbaa !11
  %19 = load i32, ptr %5, align 4, !tbaa !11
  %20 = and i32 %19, 15
  %21 = add i32 128, %20
  %22 = trunc i32 %21 to i8
  %23 = load ptr, ptr %7, align 8, !tbaa !13
  %24 = getelementptr inbounds i8, ptr %23, i64 -5
  store i8 %22, ptr %24, align 1, !tbaa !25
  %25 = load ptr, ptr %7, align 8, !tbaa !13
  %26 = getelementptr inbounds i8, ptr %25, i64 -6
  store i8 15, ptr %26, align 1, !tbaa !25
  %27 = load ptr, ptr %7, align 8, !tbaa !13
  %28 = getelementptr inbounds i8, ptr %27, i64 -6
  %29 = load ptr, ptr %4, align 8, !tbaa !33
  %30 = getelementptr inbounds nuw %struct.ASMState, ptr %29, i32 0, i32 1
  store ptr %28, ptr %30, align 8, !tbaa !67
  call void @llvm.lifetime.end.p0(i64 8, ptr %7) #11
  ret void
}

; Function Attrs: nounwind uwtable
define internal void @emit_sjcc(ptr noundef %0, i32 noundef %1, ptr noundef %2) #0 {
  %4 = alloca ptr, align 8
  %5 = alloca i32, align 4
  %6 = alloca ptr, align 8
  %7 = alloca ptr, align 8
  %8 = alloca i64, align 8
  store ptr %0, ptr %4, align 8, !tbaa !33
  store i32 %1, ptr %5, align 4, !tbaa !11
  store ptr %2, ptr %6, align 8, !tbaa !13
  call void @llvm.lifetime.start.p0(i64 8, ptr %7) #11
  %9 = load ptr, ptr %4, align 8, !tbaa !33
  %10 = getelementptr inbounds nuw %struct.ASMState, ptr %9, i32 0, i32 1
  %11 = load ptr, ptr %10, align 8, !tbaa !67
  store ptr %11, ptr %7, align 8, !tbaa !13
  call void @llvm.lifetime.start.p0(i64 8, ptr %8) #11
  %12 = load ptr, ptr %6, align 8, !tbaa !13
  %13 = load ptr, ptr %7, align 8, !tbaa !13
  %14 = ptrtoint ptr %12 to i64
  %15 = ptrtoint ptr %13 to i64
  %16 = sub i64 %14, %15
  store i64 %16, ptr %8, align 8, !tbaa !26
  %17 = load i64, ptr %8, align 8, !tbaa !26
  %18 = trunc i64 %17 to i8
  %19 = load ptr, ptr %7, align 8, !tbaa !13
  %20 = getelementptr inbounds i8, ptr %19, i64 -1
  store i8 %18, ptr %20, align 1, !tbaa !25
  %21 = load i32, ptr %5, align 4, !tbaa !11
  %22 = and i32 %21, 15
  %23 = add i32 112, %22
  %24 = trunc i32 %23 to i8
  %25 = load ptr, ptr %7, align 8, !tbaa !13
  %26 = getelementptr inbounds i8, ptr %25, i64 -2
  store i8 %24, ptr %26, align 1, !tbaa !25
  %27 = load ptr, ptr %7, align 8, !tbaa !13
  %28 = getelementptr inbounds i8, ptr %27, i64 -2
  %29 = load ptr, ptr %4, align 8, !tbaa !33
  %30 = getelementptr inbounds nuw %struct.ASMState, ptr %29, i32 0, i32 1
  store ptr %28, ptr %30, align 8, !tbaa !67
  call void @llvm.lifetime.end.p0(i64 8, ptr %8) #11
  call void @llvm.lifetime.end.p0(i64 8, ptr %7) #11
  ret void
}

; Function Attrs: alwaysinline nounwind uwtable
define internal i32 @jmprel(ptr noundef %0, ptr noundef %1, ptr noundef %2) #3 {
  %4 = alloca ptr, align 8
  %5 = alloca ptr, align 8
  %6 = alloca ptr, align 8
  %7 = alloca i64, align 8
  store ptr %0, ptr %4, align 8, !tbaa !4
  store ptr %1, ptr %5, align 8, !tbaa !13
  store ptr %2, ptr %6, align 8, !tbaa !13
  call void @llvm.lifetime.start.p0(i64 8, ptr %7) #11
  %8 = load ptr, ptr %6, align 8, !tbaa !13
  %9 = load ptr, ptr %5, align 8, !tbaa !13
  %10 = ptrtoint ptr %8 to i64
  %11 = ptrtoint ptr %9 to i64
  %12 = sub i64 %10, %11
  store i64 %12, ptr %7, align 8, !tbaa !26
  %13 = load i64, ptr %7, align 8, !tbaa !26
  %14 = trunc i64 %13 to i32
  call void @llvm.lifetime.end.p0(i64 8, ptr %7) #11
  ret i32 %14
}

; Function Attrs: alwaysinline nounwind uwtable
define internal ptr @exitstub_addr_(ptr noundef %0, i32 noundef %1) #3 {
  %3 = alloca ptr, align 8
  %4 = alloca i32, align 4
  store ptr %0, ptr %3, align 8, !tbaa !31
  store i32 %1, ptr %4, align 4, !tbaa !11
  %5 = load ptr, ptr %3, align 8, !tbaa !31
  %6 = load i32, ptr %4, align 4, !tbaa !11
  %7 = udiv i32 %6, 32
  %8 = zext i32 %7 to i64
  %9 = getelementptr inbounds nuw ptr, ptr %5, i64 %8
  %10 = load ptr, ptr %9, align 8, !tbaa !13
  %11 = load i32, ptr %4, align 4, !tbaa !11
  %12 = urem i32 %11, 32
  %13 = mul i32 4, %12
  %14 = zext i32 %13 to i64
  %15 = getelementptr inbounds nuw i8, ptr %10, i64 %14
  ret ptr %15
}

; Function Attrs: nounwind uwtable
define internal void @asm_guardcc(ptr noundef %0, i32 noundef %1) #0 {
  %3 = alloca ptr, align 8
  %4 = alloca i32, align 4
  %5 = alloca ptr, align 8
  %6 = alloca ptr, align 8
  %7 = alloca i32, align 4
  store ptr %0, ptr %3, align 8, !tbaa !33
  store i32 %1, ptr %4, align 4, !tbaa !11
  call void @llvm.lifetime.start.p0(i64 8, ptr %5) #11
  %8 = load ptr, ptr %3, align 8, !tbaa !33
  %9 = getelementptr inbounds nuw %struct.ASMState, ptr %8, i32 0, i32 4
  %10 = load ptr, ptr %9, align 8, !tbaa !51
  %11 = getelementptr inbounds nuw %struct.jit_State, ptr %10, i32 0, i32 43
  %12 = getelementptr inbounds [16 x ptr], ptr %11, i64 0, i64 0
  %13 = load ptr, ptr %3, align 8, !tbaa !33
  %14 = getelementptr inbounds nuw %struct.ASMState, ptr %13, i32 0, i32 19
  %15 = load i32, ptr %14, align 4, !tbaa !97
  %16 = call ptr @exitstub_addr_(ptr noundef %12, i32 noundef %15)
  store ptr %16, ptr %5, align 8, !tbaa !13
  call void @llvm.lifetime.start.p0(i64 8, ptr %6) #11
  %17 = load ptr, ptr %3, align 8, !tbaa !33
  %18 = getelementptr inbounds nuw %struct.ASMState, ptr %17, i32 0, i32 1
  %19 = load ptr, ptr %18, align 8, !tbaa !67
  store ptr %19, ptr %6, align 8, !tbaa !13
  %20 = load ptr, ptr %6, align 8, !tbaa !13
  %21 = load ptr, ptr %3, align 8, !tbaa !33
  %22 = getelementptr inbounds nuw %struct.ASMState, ptr %21, i32 0, i32 35
  %23 = load ptr, ptr %22, align 8, !tbaa !91
  %24 = icmp eq ptr %20, %23
  %25 = xor i1 %24, true
  %26 = xor i1 %25, true
  %27 = zext i1 %26 to i32
  %28 = sext i32 %27 to i64
  %29 = call i64 @llvm.expect.i64(i64 %28, i64 0)
  %30 = icmp ne i64 %29, 0
  br i1 %30, label %31, label %74

31:                                               ; preds = %2
  %32 = load ptr, ptr %3, align 8, !tbaa !33
  %33 = getelementptr inbounds nuw %struct.ASMState, ptr %32, i32 0, i32 11
  store i32 1, ptr %33, align 4, !tbaa !60
  %34 = load ptr, ptr %3, align 8, !tbaa !33
  %35 = getelementptr inbounds nuw %struct.ASMState, ptr %34, i32 0, i32 4
  %36 = load ptr, ptr %35, align 8, !tbaa !51
  %37 = load ptr, ptr %6, align 8, !tbaa !13
  %38 = getelementptr inbounds i8, ptr %37, i64 5
  %39 = load ptr, ptr %5, align 8, !tbaa !13
  %40 = call i32 @jmprel(ptr noundef %36, ptr noundef %38, ptr noundef %39)
  %41 = load ptr, ptr %6, align 8, !tbaa !13
  %42 = getelementptr inbounds i8, ptr %41, i64 1
  store i32 %40, ptr %42, align 4, !tbaa !11
  %43 = load ptr, ptr %6, align 8, !tbaa !13
  store ptr %43, ptr %5, align 8, !tbaa !13
  %44 = load i32, ptr %4, align 4, !tbaa !11
  %45 = xor i32 %44, 1
  store i32 %45, ptr %4, align 4, !tbaa !11
  %46 = load ptr, ptr %3, align 8, !tbaa !33
  %47 = getelementptr inbounds nuw %struct.ASMState, ptr %46, i32 0, i32 37
  %48 = load ptr, ptr %47, align 8, !tbaa !59
  %49 = icmp ne ptr %48, null
  br i1 %49, label %50, label %73

50:                                               ; preds = %31
  %51 = load ptr, ptr %3, align 8, !tbaa !33
  %52 = getelementptr inbounds nuw %struct.ASMState, ptr %51, i32 0, i32 5
  %53 = getelementptr inbounds nuw %struct.x86ModRM, ptr %52, i32 0, i32 1
  %54 = load i8, ptr %53, align 4, !tbaa !89
  %55 = zext i8 %54 to i32
  %56 = icmp eq i32 %55, 37
  %57 = xor i1 %56, true
  %58 = xor i1 %57, true
  %59 = zext i1 %58 to i32
  %60 = sext i32 %59 to i64
  %61 = call i64 @llvm.expect.i64(i64 %60, i64 0)
  %62 = icmp ne i64 %61, 0
  br i1 %62, label %63, label %69

63:                                               ; preds = %50
  %64 = load ptr, ptr %3, align 8, !tbaa !33
  %65 = getelementptr inbounds nuw %struct.ASMState, ptr %64, i32 0, i32 5
  %66 = getelementptr inbounds nuw %struct.x86ModRM, ptr %65, i32 0, i32 0
  %67 = load i32, ptr %66, align 8, !tbaa !184
  %68 = add nsw i32 %67, 2
  store i32 %68, ptr %66, align 8, !tbaa !184
  br label %69

69:                                               ; preds = %63, %50
  %70 = load ptr, ptr %3, align 8, !tbaa !33
  %71 = load i32, ptr %4, align 4, !tbaa !11
  %72 = load ptr, ptr %5, align 8, !tbaa !13
  call void @emit_sjcc(ptr noundef %70, i32 noundef %71, ptr noundef %72)
  store i32 1, ptr %7, align 4
  br label %97

73:                                               ; preds = %31
  br label %74

74:                                               ; preds = %73, %2
  %75 = load ptr, ptr %3, align 8, !tbaa !33
  %76 = getelementptr inbounds nuw %struct.ASMState, ptr %75, i32 0, i32 5
  %77 = getelementptr inbounds nuw %struct.x86ModRM, ptr %76, i32 0, i32 1
  %78 = load i8, ptr %77, align 4, !tbaa !89
  %79 = zext i8 %78 to i32
  %80 = icmp eq i32 %79, 37
  %81 = xor i1 %80, true
  %82 = xor i1 %81, true
  %83 = zext i1 %82 to i32
  %84 = sext i32 %83 to i64
  %85 = call i64 @llvm.expect.i64(i64 %84, i64 0)
  %86 = icmp ne i64 %85, 0
  br i1 %86, label %87, label %93

87:                                               ; preds = %74
  %88 = load ptr, ptr %3, align 8, !tbaa !33
  %89 = getelementptr inbounds nuw %struct.ASMState, ptr %88, i32 0, i32 5
  %90 = getelementptr inbounds nuw %struct.x86ModRM, ptr %89, i32 0, i32 0
  %91 = load i32, ptr %90, align 8, !tbaa !184
  %92 = add nsw i32 %91, 6
  store i32 %92, ptr %90, align 8, !tbaa !184
  br label %93

93:                                               ; preds = %87, %74
  %94 = load ptr, ptr %3, align 8, !tbaa !33
  %95 = load i32, ptr %4, align 4, !tbaa !11
  %96 = load ptr, ptr %5, align 8, !tbaa !13
  call void @emit_jcc(ptr noundef %94, i32 noundef %95, ptr noundef %96)
  store i32 0, ptr %7, align 4
  br label %97

97:                                               ; preds = %93, %69
  call void @llvm.lifetime.end.p0(i64 8, ptr %6) #11
  call void @llvm.lifetime.end.p0(i64 8, ptr %5) #11
  %98 = load i32, ptr %7, align 4
  switch i32 %98, label %100 [
    i32 0, label %99
    i32 1, label %99
  ]

99:                                               ; preds = %97, %97
  ret void

100:                                              ; preds = %97
  unreachable
}