; Function Attrs: mustprogress nofree norecurse nosync nounwind willreturn memory(readwrite, inaccessiblemem: none) uwtable
define internal fastcc void @asm_guardcc(ptr noundef nonnull captures(none) %0, i32 noundef range(i32 0, 65536) %1) unnamed_addr #8 {
  %3 = getelementptr inbounds nuw i8, ptr %0, i64 152
  %4 = load ptr, ptr %3, align 8, !tbaa !44
  %5 = getelementptr inbounds nuw i8, ptr %4, i64 1696
  %6 = getelementptr inbounds nuw i8, ptr %0, i64 220
  %7 = load i32, ptr %6, align 4, !tbaa !87
  %8 = lshr i32 %7, 5
  %9 = zext nneg i32 %8 to i64
  %10 = getelementptr inbounds nuw ptr, ptr %5, i64 %9
  %11 = load ptr, ptr %10, align 8, !tbaa !19
  %12 = shl i32 %7, 2
  %13 = and i32 %12, 124
  %14 = zext nneg i32 %13 to i64
  %15 = getelementptr inbounds nuw i8, ptr %11, i64 %14
  %16 = getelementptr inbounds nuw i8, ptr %0, i64 128
  %17 = load ptr, ptr %16, align 8, !tbaa !60
  %18 = getelementptr inbounds nuw i8, ptr %0, i64 320
  %19 = load ptr, ptr %18, align 8, !tbaa !70
  %20 = icmp eq ptr %17, %19
  br i1 %20, label %21, label %45, !prof !108

21:                                               ; preds = %2
  %22 = getelementptr inbounds nuw i8, ptr %0, i64 188
  store i32 1, ptr %22, align 4, !tbaa !53
  %23 = getelementptr inbounds nuw i8, ptr %17, i64 5
  %24 = ptrtoint ptr %15 to i64
  %25 = ptrtoint ptr %23 to i64
  %26 = sub i64 %24, %25
  %27 = trunc i64 %26 to i32
  %28 = getelementptr inbounds nuw i8, ptr %17, i64 1
  store i32 %27, ptr %28, align 4, !tbaa !21
  %29 = xor i32 %1, 1
  %30 = getelementptr inbounds nuw i8, ptr %0, i64 336
  %31 = load ptr, ptr %30, align 8, !tbaa !52
  %.not = icmp eq ptr %31, null
  br i1 %.not, label %45, label %32

32:                                               ; preds = %21
  %33 = getelementptr inbounds nuw i8, ptr %0, i64 164
  %34 = load i8, ptr %33, align 4, !tbaa !67
  %35 = icmp eq i8 %34, 37
  br i1 %35, label %36, label %40, !prof !108

36:                                               ; preds = %32
  %37 = getelementptr inbounds nuw i8, ptr %0, i64 160
  %38 = load i32, ptr %37, align 8, !tbaa !131
  %39 = add nsw i32 %38, 2
  store i32 %39, ptr %37, align 8, !tbaa !131
  br label %40

40:                                               ; preds = %36, %32
  %41 = getelementptr inbounds i8, ptr %17, i64 -1
  store i8 0, ptr %41, align 1, !tbaa !20
  %42 = trunc i32 %29 to i8
  %43 = and i8 %42, 15
  %44 = or disjoint i8 %43, 112
  br label %63

45:                                               ; preds = %21, %2
  %.022 = phi ptr [ %17, %21 ], [ %15, %2 ]
  %.0 = phi i32 [ %29, %21 ], [ %1, %2 ]
  %46 = getelementptr inbounds nuw i8, ptr %0, i64 164
  %47 = load i8, ptr %46, align 4, !tbaa !67
  %48 = icmp eq i8 %47, 37
  br i1 %48, label %49, label %53, !prof !108

49:                                               ; preds = %45
  %50 = getelementptr inbounds nuw i8, ptr %0, i64 160
  %51 = load i32, ptr %50, align 8, !tbaa !131
  %52 = add nsw i32 %51, 6
  store i32 %52, ptr %50, align 8, !tbaa !131
  br label %53

53:                                               ; preds = %49, %45
  %54 = ptrtoint ptr %.022 to i64
  %55 = ptrtoint ptr %17 to i64
  %56 = sub i64 %54, %55
  %57 = trunc i64 %56 to i32
  %58 = getelementptr inbounds i8, ptr %17, i64 -4
  store i32 %57, ptr %58, align 4, !tbaa !21
  %59 = trunc i32 %.0 to i8
  %60 = and i8 %59, 15
  %61 = or disjoint i8 %60, -128
  %62 = getelementptr inbounds i8, ptr %17, i64 -5
  store i8 %61, ptr %62, align 1, !tbaa !20
  br label %63

63:                                               ; preds = %53, %40
  %.sink25 = phi i64 [ -6, %53 ], [ -2, %40 ]
  %.sink = phi i8 [ 15, %53 ], [ %44, %40 ]
  %64 = getelementptr inbounds i8, ptr %17, i64 %.sink25
  store i8 %.sink, ptr %64, align 1, !tbaa !20
  store ptr %64, ptr %16, align 8, !tbaa !60
  ret void
}